target datalayout = "e-m:e-p270:32:32-p271:32:32-p272:64:64-i64:64-i128:128-f80:128-n8:16:32:64-S128"
target triple = "x86_64-pc-linux-gnu"

%struct.algo_time_t = type { i32, i32 }

; Function Attrs: nounwind uwtable
define dso_local i32 @HUF_selectDecoder(i64 noundef %0, i64 noundef %1) #0 {
  %3 = alloca i64, align 8
  %4 = alloca i64, align 8
  %5 = alloca i32, align 4
  %6 = alloca i32, align 4
  %7 = alloca i32, align 4
  %8 = alloca i32, align 4
  store i64 %0, ptr %3, align 8
  store i64 %1, ptr %4, align 8
  %9 = load i64, ptr %4, align 8
  %10 = load i64, ptr %3, align 8
  %11 = icmp uge i64 %9, %10
  br i1 %11, label %12, label %13

12:                                               ; preds = %2
  br label %19

13:                                               ; preds = %2
  %14 = load i64, ptr %4, align 8
  %15 = mul i64 %14, 16
  %16 = load i64, ptr %3, align 8
  %17 = udiv i64 %15, %16
  %18 = trunc i64 %17 to i32
  br label %19

19:                                               ; preds = %13, %12
  %20 = phi i32 [ 15, %12 ], [ %18, %13 ]
  store i32 %20, ptr %5, align 4
  %21 = load i64, ptr %3, align 8
  %22 = lshr i64 %21, 8
  %23 = trunc i64 %22 to i32
  store i32 %23, ptr %6, align 4
  %24 = load i32, ptr %5, align 4
  %25 = zext i32 %24 to i64
  %26 = getelementptr inbounds [16 x [2 x %struct.algo_time_t]], ptr @algoTime, i64 0, i64 %25
  %27 = getelementptr inbounds [2 x %struct.algo_time_t], ptr %26, i64 0, i64 0
  %28 = getelementptr inbounds %struct.algo_time_t, ptr %27, i32 0, i32 0
  %29 = load i32, ptr %28, align 16
  %30 = load i32, ptr %5, align 4
  %31 = zext i32 %30 to i64
  %32 = getelementptr inbounds [16 x [2 x %struct.algo_time_t]], ptr @algoTime, i64 0, i64 %31
  %33 = getelementptr inbounds [2 x %struct.algo_time_t], ptr %32, i64 0, i64 0
  %34 = getelementptr inbounds %struct.algo_time_t, ptr %33, i32 0, i32 1
  %35 = load i32, ptr %34, align 4
  %36 = load i32, ptr %6, align 4
  %37 = mul i32 %35, %36
  %38 = add i32 %29, %37
  store i32 %38, ptr %7, align 4
  %39 = load i32, ptr %5, align 4
  %40 = zext i32 %39 to i64
  %41 = getelementptr inbounds [16 x [2 x %struct.algo_time_t]], ptr @algoTime, i64 0, i64 %40
  %42 = getelementptr inbounds [2 x %struct.algo_time_t], ptr %41, i64 0, i64 1
  %43 = getelementptr inbounds %struct.algo_time_t, ptr %42, i32 0, i32 0
  %44 = load i32, ptr %43, align 8
  %45 = load i32, ptr %5, align 4
  %46 = zext i32 %45 to i64
  %47 = getelementptr inbounds [16 x [2 x %struct.algo_time_t]], ptr @algoTime, i64 0, i64 %46
  %48 = getelementptr inbounds [2 x %struct.algo_time_t], ptr %47, i64 0, i64 1
  %49 = getelementptr inbounds %struct.algo_time_t, ptr %48, i32 0, i32 1
  %50 = load i32, ptr %49, align 4
  %51 = load i32, ptr %6, align 4
  %52 = mul i32 %50, %51
  %53 = add i32 %44, %52
  store i32 %53, ptr %8, align 4
  %54 = load i32, ptr %8, align 4
  %55 = lshr i32 %54, 5
  %56 = load i32, ptr %8, align 4
  %57 = add i32 %56, %55
  store i32 %57, ptr %8, align 4
  %58 = load i32, ptr %8, align 4
  %59 = load i32, ptr %7, align 4
  %60 = icmp ult i32 %58, %59
  %61 = zext i1 %60 to i32
  ret i32 %61
}